target datalayout = "e-m:e-p270:32:32-p271:32:32-p272:64:64-i64:64-i128:128-f80:128-n8:16:32:64-S128"
target triple = "x86_64-pc-linux-gnu"

%struct.expert_field = type { i32, i32 }
%struct._asn1_ctx_t = type { i32, i32, i8, ptr, ptr, ptr, ptr, ptr, %struct.anon, %struct.anon.2, %struct.anon.3, ptr }
%struct.anon = type { i32, i8, i8, i8, ptr, ptr, i32, i32, ptr, ptr, ptr, %union.anon }
%union.anon = type { %struct.anon.0 }
%struct.anon.0 = type { ptr }
%struct.anon.2 = type { ptr, ptr, ptr }
%struct.anon.3 = type { i32, i8, ptr, i32, i32, ptr, ptr, ptr, %union.anon.4 }
%union.anon.4 = type { %struct.anon.5 }
%struct.anon.5 = type { ptr }

@ei_ber_size_constraint_value = internal global %struct.expert_field zeroinitializer, align 4
@.str.348 = private unnamed_addr constant [48 x i8] c"Size constraint: value too small: %d (%d .. %d)\00", align 1
@.str.349 = private unnamed_addr constant [46 x i8] c"Size constraint: value too big: %d (%d .. %d)\00", align 1

; Function Attrs: null_pointer_is_valid sspstrong uwtable
define internal void @ber_check_value(i32 noundef %0, i32 noundef %1, i32 noundef %2, ptr noundef %3, ptr noundef %4) #0 {
  %6 = alloca i32, align 4
  %7 = alloca i32, align 4
  %8 = alloca i32, align 4
  %9 = alloca ptr, align 8
  %10 = alloca ptr, align 8
  store i32 %0, ptr %6, align 4
  store i32 %1, ptr %7, align 4
  store i32 %2, ptr %8, align 4
  store ptr %3, ptr %9, align 8
  store ptr %4, ptr %10, align 8
  %11 = load i32, ptr %7, align 4
  %12 = icmp ne i32 %11, -1
  br i1 %12, label %13, label %26

13:                                               ; preds = %5
  %14 = load i32, ptr %6, align 4
  %15 = load i32, ptr %7, align 4
  %16 = icmp ult i32 %14, %15
  br i1 %16, label %17, label %26

17:                                               ; preds = %13
  %18 = load ptr, ptr %9, align 8
  %19 = getelementptr inbounds nuw %struct._asn1_ctx_t, ptr %18, i32 0, i32 3
  %20 = load ptr, ptr %19, align 8
  %21 = load ptr, ptr %10, align 8
  %22 = load i32, ptr %6, align 4
  %23 = load i32, ptr %7, align 4
  %24 = load i32, ptr %8, align 4
  %25 = call ptr (ptr, ptr, ptr, ptr, ...) @expert_add_info_format(ptr noundef %20, ptr noundef %21, ptr noundef @ei_ber_size_constraint_value, ptr noundef @.str.348, i32 noundef %22, i32 noundef %23, i32 noundef %24)
  br label %43

26:                                               ; preds = %13, %5
  %27 = load i32, ptr %8, align 4
  %28 = icmp ne i32 %27, -1
  br i1 %28, label %29, label %42

29:                                               ; preds = %26
  %30 = load i32, ptr %6, align 4
  %31 = load i32, ptr %8, align 4
  %32 = icmp ugt i32 %30, %31
  br i1 %32, label %33, label %42

33:                                               ; preds = %29
  %34 = load ptr, ptr %9, align 8
  %35 = getelementptr inbounds nuw %struct._asn1_ctx_t, ptr %34, i32 0, i32 3
  %36 = load ptr, ptr %35, align 8
  %37 = load ptr, ptr %10, align 8
  %38 = load i32, ptr %6, align 4
  %39 = load i32, ptr %7, align 4
  %40 = load i32, ptr %8, align 4
  %41 = call ptr (ptr, ptr, ptr, ptr, ...) @expert_add_info_format(ptr noundef %36, ptr noundef %37, ptr noundef @ei_ber_size_constraint_value, ptr noundef @.str.349, i32 noundef %38, i32 noundef %39, i32 noundef %40)
  br label %42

42:                                               ; preds = %33, %29, %26
  br label %43

43:                                               ; preds = %42, %17
  ret void
}

; Function Attrs: null_pointer_is_valid sspstrong uwtable
define hidden i32 @dissect_ber_constrained_integer(i1 noundef zeroext %0, ptr noundef %1, ptr noundef %2, ptr noundef %3, i32 noundef %4, i32 noundef %5, i32 noundef %6, i32 noundef %7, ptr noundef %8) #0 {
  %10 = alloca i8, align 1
  %11 = alloca ptr, align 8
  %12 = alloca ptr, align 8
  %13 = alloca ptr, align 8
  %14 = alloca i32, align 4
  %15 = alloca i32, align 4
  %16 = alloca i32, align 4
  %17 = alloca i32, align 4
  %18 = alloca ptr, align 8
  %19 = alloca i64, align 8
  %20 = zext i1 %0 to i8
  store i8 %20, ptr %10, align 1
  store ptr %1, ptr %11, align 8
  store ptr %2, ptr %12, align 8
  store ptr %3, ptr %13, align 8
  store i32 %4, ptr %14, align 4
  store i32 %5, ptr %15, align 4
  store i32 %6, ptr %16, align 4
  store i32 %7, ptr %17, align 4
  store ptr %8, ptr %18, align 8
  call void @llvm.lifetime.start.p0(i64 8, ptr %19) #12
  %21 = load i8, ptr %10, align 1, !range !6, !noundef !7
  %22 = trunc i8 %21 to i1
  %23 = load ptr, ptr %11, align 8
  %24 = load ptr, ptr %12, align 8
  %25 = load ptr, ptr %13, align 8
  %26 = load i32, ptr %14, align 4
  %27 = load i32, ptr %17, align 4
  %28 = call i32 @dissect_ber_integer64(i1 noundef zeroext %22, ptr noundef %23, ptr noundef %24, ptr noundef %25, i32 noundef %26, i32 noundef %27, ptr noundef %19)
  store i32 %28, ptr %14, align 4
  %29 = load ptr, ptr %18, align 8
  %30 = icmp ne ptr %29, null
  br i1 %30, label %31, label %35

31:                                               ; preds = %9
  %32 = load i64, ptr %19, align 8
  %33 = trunc i64 %32 to i32
  %34 = load ptr, ptr %18, align 8
  store i32 %33, ptr %34, align 4
  br label %35

35:                                               ; preds = %31, %9
  %36 = load i64, ptr %19, align 8
  %37 = trunc i64 %36 to i32
  %38 = load i32, ptr %15, align 4
  %39 = load i32, ptr %16, align 4
  %40 = load ptr, ptr %11, align 8
  %41 = load ptr, ptr %11, align 8
  %42 = getelementptr inbounds nuw %struct._asn1_ctx_t, ptr %41, i32 0, i32 4
  %43 = load ptr, ptr %42, align 8
  call void @ber_check_value(i32 noundef %37, i32 noundef %38, i32 noundef %39, ptr noundef %40, ptr noundef %43)
  %44 = load i32, ptr %14, align 4
  call void @llvm.lifetime.end.p0(i64 8, ptr %19) #12
  ret i32 %44
}