; Function Attrs: null_pointer_is_valid sspstrong uwtable
define hidden i32 @dissect_ber_constrained_integer(i1 noundef zeroext %0, ptr noundef captures(none) %1, ptr noundef %2, ptr noundef %3, i32 noundef %4, i32 noundef %5, i32 noundef %6, i32 noundef %7, ptr noundef writeonly captures(address_is_null) %8) local_unnamed_addr #0 {
  %10 = alloca i64, align 8
  call void @llvm.lifetime.start.p0(i64 8, ptr nonnull %10) #14
  %11 = call i32 @dissect_ber_integer64(i1 noundef zeroext %0, ptr noundef %1, ptr noundef %2, ptr noundef %3, i32 noundef %4, i32 noundef %7, ptr noundef nonnull %10)
  %.not = icmp eq ptr %8, null
  %.pre = load i64, ptr %10, align 8
  %.pre12 = trunc i64 %.pre to i32
  br i1 %.not, label %._crit_edge, label %12

12:                                               ; preds = %9
  store i32 %.pre12, ptr %8, align 4
  br label %._crit_edge

._crit_edge:                                      ; preds = %9, %12
  %13 = getelementptr inbounds nuw i8, ptr %1, i64 24
  %14 = load ptr, ptr %13, align 8
  %.not.i = icmp ne i32 %5, -1
  %15 = icmp ugt i32 %5, %.pre12
  %or.cond.i = and i1 %.not.i, %15
  br i1 %or.cond.i, label %.sink.split.i, label %16

16:                                               ; preds = %._crit_edge
  %17 = icmp ult i32 %6, %.pre12
  br i1 %17, label %.sink.split.i, label %ber_check_value.exit

.sink.split.i:                                    ; preds = %16, %._crit_edge
  %.str.349.sink.i = phi ptr [ @.str.348, %._crit_edge ], [ @.str.349, %16 ]
  %18 = getelementptr inbounds nuw i8, ptr %1, i64 16
  %19 = load ptr, ptr %18, align 8
  %20 = call ptr (ptr, ptr, ptr, ptr, ...) @expert_add_info_format(ptr noundef %19, ptr noundef %14, ptr noundef nonnull @ei_ber_size_constraint_value, ptr noundef nonnull %.str.349.sink.i, i32 noundef %.pre12, i32 noundef %5, i32 noundef %6)
  br label %ber_check_value.exit

ber_check_value.exit:                             ; preds = %16, %.sink.split.i
  call void @llvm.lifetime.end.p0(i64 8, ptr nonnull %10) #14
  ret i32 %11
}